BL51 BANKED LINKER/LOCATER V6.22                                                        11/03/2013  14:52:55  PAGE 1


BL51 BANKED LINKER/LOCATER V6.22, INVOKED BY:
C:\KEIL\C51\BIN\BL51.EXE STARTUP.obj, test_main.obj, lcm_1602_main.obj, dht11.obj, DS18B20.obj TO test RAMSIZE (256)


MEMORY MODEL: SMALL


INPUT MODULES INCLUDED:
  STARTUP.obj (?C_STARTUP)
  test_main.obj (TEST_MAIN)
  lcm_1602_main.obj (LCM_1602_MAIN)
  dht11.obj (DHT11)
  DS18B20.obj (DS18B20)
  C:\KEIL\C51\LIB\C51S.LIB (?C_INIT)
  C:\KEIL\C51\LIB\C51S.LIB (?C?SIDIV)
  C:\KEIL\C51\LIB\C51S.LIB (?C?UIDIV)


LINK MAP OF MODULE:  test (?C_STARTUP)


            TYPE    BASE      LENGTH    RELOCATION   SEGMENT NAME
            -----------------------------------------------------

            * * * * * * *   D A T A   M E M O R Y   * * * * * * *
            REG     0000H     0008H     ABSOLUTE     "REG BANK 0"
            DATA    0008H     000AH     UNIT         ?DT?DHT11
            DATA    0012H     000AH     UNIT         _DATA_GROUP_
            DATA    001CH     0002H     UNIT         ?DT?TEST_MAIN
            DATA    001EH     0002H     UNIT         ?DT?READROM?DS18B20
            BIT     0020H.0   0000H.1   UNIT         _BIT_GROUP_
                    0020H.1   0000H.7                *** GAP ***
            IDATA   0021H     0001H     UNIT         ?STACK

            * * * * * * *   C O D E   M E M O R Y   * * * * * * *
            CODE    0000H     0003H     ABSOLUTE     
            CODE    0003H     0007H     UNIT         ?C_INITSEG
                    000AH     0001H                  *** GAP ***
            CODE    000BH     0003H     ABSOLUTE     
            CODE    000EH     015FH     UNIT         ?PR?MAIN?TEST_MAIN
            CODE    016DH     00A1H     UNIT         ?PR?READTEMPANDHUMI?DHT11
            CODE    020EH     008CH     UNIT         ?C_C51STARTUP
            CODE    029AH     008BH     UNIT         ?C?LIB_CODE
            CODE    0325H     004CH     UNIT         ?PR?READVALUE?DHT11
            CODE    0371H     004AH     UNIT         ?PR?LCM_1602_INIT?LCM_1602_MAIN
            CODE    03BBH     0048H     UNIT         ?PR?_TMPWRITEBYTE?DS18B20
            CODE    0403H     0039H     UNIT         ?PR?_LCM_1602_SHOW_STRING?LCM_1602_MAIN
            CODE    043CH     0024H     UNIT         ?PR?TMPREADBIT?DS18B20
            CODE    0460H     0020H     UNIT         ?PR?_DELAYB?DS18B20
            CODE    0480H     001FH     UNIT         ?PR?DSRESET?DS18B20
            CODE    049FH     001EH     UNIT         ?PR?_DELAY_1MS?DHT11
            CODE    04BDH     001DH     UNIT         ?PR?TMPREAD?DS18B20
            CODE    04DAH     001CH     UNIT         ?PR?_LCM_1602_SHOW_WORD?LCM_1602_MAIN
            CODE    04F6H     001BH     UNIT         ?PR?_LCM_WRITECOMMAND?LCM_1602_MAIN
            CODE    0511H     001AH     UNIT         ?PR?TMP?DS18B20
            CODE    052BH     0019H     UNIT         ?PR?DELAY400MS?LCM_1602_MAIN
            CODE    0544H     0016H     UNIT         ?CO?LCM_1602_MAIN
            CODE    055AH     0015H     UNIT         ?PR?LCM_READSTATUS?LCM_1602_MAIN
BL51 BANKED LINKER/LOCATER V6.22                                                      11/03/2013  14:52:55  PAGE 2


            CODE    056FH     0014H     UNIT         ?CO?TEST_MAIN
            CODE    0583H     0013H     UNIT         ?PR?_LCM_WRITEDATA?LCM_1602_MAIN
            CODE    0596H     0013H     UNIT         ?PR?READROM?DS18B20
            CODE    05A9H     0010H     UNIT         ?PR?INITTIME?TEST_MAIN
            CODE    05B9H     000FH     UNIT         ?PR?DELAY5MS?LCM_1602_MAIN
            CODE    05C8H     000DH     UNIT         ?PR?LCM_READDATA?LCM_1602_MAIN
            CODE    05D5H     000DH     UNIT         ?PR?DELAY_10US?DHT11
            CODE    05E2H     000DH     UNIT         ?PR?TMPCHANGE?DS18B20
            CODE    05EFH     0009H     UNIT         ?PR?TIMER?TEST_MAIN



OVERLAY MAP OF MODULE:   test (?C_STARTUP)


SEGMENT                                            BIT_GROUP          DATA_GROUP 
  +--> CALLED SEGMENT                           START    LENGTH     START    LENGTH
-----------------------------------------------------------------------------------
?C_C51STARTUP                                   -----    -----      -----    -----
  +--> ?PR?MAIN?TEST_MAIN
  +--> ?C_INITSEG

?PR?MAIN?TEST_MAIN                              -----    -----      0012H    0003H
  +--> ?PR?LCM_1602_INIT?LCM_1602_MAIN
  +--> ?PR?_DELAY_1MS?DHT11
  +--> ?PR?READTEMPANDHUMI?DHT11
  +--> ?PR?INITTIME?TEST_MAIN
  +--> ?CO?TEST_MAIN
  +--> ?PR?_LCM_1602_SHOW_STRING?LCM_1602_MAIN
  +--> ?PR?_LCM_1602_SHOW_WORD?LCM_1602_MAIN
  +--> ?PR?TMPCHANGE?DS18B20
  +--> ?PR?TMP?DS18B20

?PR?LCM_1602_INIT?LCM_1602_MAIN                 -----    -----      -----    -----
  +--> ?PR?_LCM_WRITECOMMAND?LCM_1602_MAIN
  +--> ?PR?DELAY5MS?LCM_1602_MAIN

?PR?_LCM_WRITECOMMAND?LCM_1602_MAIN             -----    -----      001BH    0001H
  +--> ?PR?LCM_READSTATUS?LCM_1602_MAIN

?PR?READTEMPANDHUMI?DHT11                       -----    -----      -----    -----
  +--> ?PR?_DELAY_1MS?DHT11
  +--> ?PR?DELAY_10US?DHT11
  +--> ?PR?READVALUE?DHT11

?PR?DELAY_10US?DHT11                            -----    -----      0015H    0001H

?PR?READVALUE?DHT11                             -----    -----      -----    -----
  +--> ?PR?DELAY_10US?DHT11

?PR?_LCM_1602_SHOW_STRING?LCM_1602_MAIN         -----    -----      0015H    0005H
  +--> ?PR?_LCM_1602_SHOW_WORD?LCM_1602_MAIN

?PR?_LCM_1602_SHOW_WORD?LCM_1602_MAIN           -----    -----      001AH    0001H
  +--> ?PR?_LCM_WRITECOMMAND?LCM_1602_MAIN
  +--> ?PR?_LCM_WRITEDATA?LCM_1602_MAIN

BL51 BANKED LINKER/LOCATER V6.22                                                      11/03/2013  14:52:55  PAGE 3


?PR?_LCM_WRITEDATA?LCM_1602_MAIN                -----    -----      001BH    0001H
  +--> ?PR?LCM_READSTATUS?LCM_1602_MAIN

?PR?TMPCHANGE?DS18B20                           -----    -----      -----    -----
  +--> ?PR?_DELAYB?DS18B20
  +--> ?PR?_TMPWRITEBYTE?DS18B20

?PR?_DELAYB?DS18B20                             -----    -----      -----    -----
  +--> ?PR?DSRESET?DS18B20

?PR?_TMPWRITEBYTE?DS18B20                       0020H.0  0000H.1    -----    -----

?PR?TMP?DS18B20                                 -----    -----      -----    -----
  +--> ?PR?_DELAYB?DS18B20
  +--> ?PR?_TMPWRITEBYTE?DS18B20
  +--> ?PR?TMPREAD?DS18B20

?PR?TMPREAD?DS18B20                             -----    -----      -----    -----
  +--> ?PR?TMPREADBIT?DS18B20

?PR?TMPREADBIT?DS18B20                          0020H.0  0000H.1    -----    -----



SYMBOL TABLE OF MODULE:  test (?C_STARTUP)

  VALUE           TYPE          NAME
  ----------------------------------

  -------         MODULE        ?C_STARTUP
  C:020EH         SEGMENT       ?C_C51STARTUP
  I:0021H         SEGMENT       ?STACK
  C:0000H         PUBLIC        ?C_STARTUP
  D:00E0H         SYMBOL        ACC
  D:00F0H         SYMBOL        B
  D:0083H         SYMBOL        DPH
  D:0082H         SYMBOL        DPL
  N:0000H         SYMBOL        IBPSTACK
  N:0100H         SYMBOL        IBPSTACKTOP
  N:0080H         SYMBOL        IDATALEN
  C:0211H         SYMBOL        IDATALOOP
  N:0000H         SYMBOL        PBPSTACK
  N:0100H         SYMBOL        PBPSTACKTOP
  N:0000H         SYMBOL        PDATALEN
  N:0000H         SYMBOL        PDATASTART
  N:0000H         SYMBOL        PPAGE
  N:0000H         SYMBOL        PPAGEENABLE
  D:00A0H         SYMBOL        PPAGE_SFR
  D:0081H         SYMBOL        SP
  C:020EH         SYMBOL        STARTUP1
  N:0000H         SYMBOL        XBPSTACK
  N:0000H         SYMBOL        XBPSTACKTOP
  N:0000H         SYMBOL        XDATALEN
  N:0000H         SYMBOL        XDATASTART
  C:0000H         LINE#         126
  C:020EH         LINE#         133
  C:0210H         LINE#         134
BL51 BANKED LINKER/LOCATER V6.22                                                      11/03/2013  14:52:55  PAGE 4


  C:0211H         LINE#         135
  C:0212H         LINE#         136
  C:0214H         LINE#         185
  C:0217H         LINE#         196
  -------         ENDMOD        ?C_STARTUP

  -------         MODULE        TEST_MAIN
  C:0000H         SYMBOL        _ICE_DUMMY_
  D:0090H         PUBLIC        P1
  D:00B0H         PUBLIC        P3
  B:00A8H.7       PUBLIC        EA
  D:00A8H         PUBLIC        IE
  D:00B8H         PUBLIC        IP
  D:001CH         PUBLIC        flag
  D:001DH         PUBLIC        ds18b20_temp
  C:05EFH         PUBLIC        timer
  C:000EH         PUBLIC        main
  C:05A9H         SYMBOL        InitTime
  D:0098H         PUBLIC        SCON
  D:0089H         PUBLIC        TMOD
  D:0088H         PUBLIC        TCON
  B:00A8H.1       PUBLIC        ET0
  D:008CH         PUBLIC        TH0
  D:008AH         PUBLIC        TL0
  B:0088H.4       PUBLIC        TR0
  D:00C8H         PUBLIC        T2CON
  D:00D0H         PUBLIC        PSW
  -------         PROC          MAIN
  -------         DO            
  D:0012H         SYMBOL        i
  D:0014H         SYMBOL        mark
  -------         ENDDO         
  C:000EH         LINE#         17
  C:000EH         LINE#         18
  C:000EH         LINE#         34
  C:0011H         LINE#         35
  C:0014H         LINE#         38
  C:001BH         LINE#         41
  C:001EH         LINE#         43
  C:0025H         LINE#         45
  C:0028H         LINE#         47
  C:0032H         LINE#         48
  C:003DH         LINE#         49
  C:0048H         LINE#         51
  C:0048H         LINE#         52
  C:0048H         LINE#         54
  C:004DH         LINE#         55
  C:004DH         LINE#         56
  C:0050H         LINE#         57
  C:0052H         LINE#         58
  C:0055H         LINE#         59
  C:0055H         LINE#         60
  C:005AH         LINE#         61
  C:005AH         LINE#         63
  C:005FH         LINE#         64
  C:005FH         LINE#         65
  C:007CH         LINE#         66
BL51 BANKED LINKER/LOCATER V6.22                                                      11/03/2013  14:52:55  PAGE 5


  C:0092H         LINE#         67
  C:00A7H         LINE#         68
  C:00A7H         LINE#         70
  C:00A7H         LINE#         71
  C:00ACH         LINE#         72
  C:00ACH         LINE#         74
  C:00C9H         LINE#         75
  C:00DFH         LINE#         76
  C:00F2H         LINE#         77
  C:00F2H         LINE#         80
  C:00F2H         LINE#         81
  C:00F5H         LINE#         82
  C:0101H         LINE#         83
  C:0108H         LINE#         84
  C:010EH         LINE#         85
  C:0117H         LINE#         86
  C:012DH         LINE#         87
  C:013FH         LINE#         88
  C:0142H         LINE#         89
  C:0158H         LINE#         90
  C:016AH         LINE#         91
  C:016AH         LINE#         92
  C:016AH         LINE#         94
  -------         ENDPROC       MAIN
  -------         PROC          INITTIME
  C:05A9H         LINE#         101
  C:05A9H         LINE#         102
  C:05A9H         LINE#         103
  C:05ACH         LINE#         104
  C:05AFH         LINE#         105
  C:05B2H         LINE#         106
  C:05B4H         LINE#         107
  C:05B6H         LINE#         108
  C:05B8H         LINE#         109
  -------         ENDPROC       INITTIME
  -------         PROC          TIMER
  C:05EFH         LINE#         111
  C:05EFH         LINE#         113
  C:05F2H         LINE#         114
  C:05F5H         LINE#         115
  C:05F7H         LINE#         116
  -------         ENDPROC       TIMER
  -------         ENDMOD        TEST_MAIN

  -------         MODULE        LCM_1602_MAIN
  C:0000H         SYMBOL        _ICE_DUMMY_
  C:0371H         PUBLIC        lcm_1602_init
  C:0544H         PUBLIC        uctech
  D:0090H         PUBLIC        P1
  B:00B0H.5       PUBLIC        LCM_E
  D:00A0H         PUBLIC        P2
  D:00B0H         PUBLIC        P3
  C:0403H         PUBLIC        _lcm_1602_show_string
  D:00A8H         PUBLIC        IE
  C:04FAH         PUBLIC        _LCM_WriteCommand
  D:00B8H         PUBLIC        IP
  C:04DAH         PUBLIC        _lcm_1602_show_word
BL51 BANKED LINKER/LOCATER V6.22                                                      11/03/2013  14:52:55  PAGE 6


  D:0098H         PUBLIC        SCON
  D:0088H         PUBLIC        TCON
  C:05C8H         PUBLIC        LCM_ReadData
  B:00B0H.3       PUBLIC        LCM_V0
  C:055AH         PUBLIC        LCM_ReadStatus
  C:0583H         PUBLIC        _LCM_WriteData
  C:054AH         PUBLIC        net
  C:052BH         PUBLIC        Delay400Ms
  B:00B0H.7       PUBLIC        LCM_RS
  B:00B0H.6       PUBLIC        LCM_RW
  D:00C8H         PUBLIC        T2CON
  C:05B9H         PUBLIC        Delay5Ms
  D:00D0H         PUBLIC        PSW
  -------         PROC          _LCM_WRITEDATA
  D:001BH         SYMBOL        WDLCM
  C:0583H         LINE#         34
  C:0585H         LINE#         35
  C:0585H         LINE#         36
  C:0588H         LINE#         37
  C:058BH         LINE#         38
  C:058DH         LINE#         39
  C:058FH         LINE#         40
  C:0591H         LINE#         41
  C:0593H         LINE#         42
  C:0595H         LINE#         43
  -------         ENDPROC       _LCM_WRITEDATA
  -------         PROC          L?0025
  -------         ENDPROC       L?0025
  -------         PROC          _LCM_WRITECOMMAND
  D:001BH         SYMBOL        WCLCM
  D:0004H         SYMBOL        BuysC
  C:04FAH         LINE#         51
  C:04FCH         LINE#         52
  C:04FCH         LINE#         53
  C:0503H         LINE#         54
  C:0506H         LINE#         55
  C:0508H         LINE#         56
  C:050AH         LINE#         57
  C:050CH         LINE#         58
  C:050EH         LINE#         59
  C:0510H         LINE#         60
  -------         ENDPROC       _LCM_WRITECOMMAND
  -------         PROC          LCM_READDATA
  C:05C8H         LINE#         68
  C:05C8H         LINE#         69
  C:05C8H         LINE#         70
  C:05CAH         LINE#         71
  C:05CCH         LINE#         72
  C:05CEH         LINE#         73
  C:05D0H         LINE#         74
  C:05D2H         LINE#         75
  C:05D4H         LINE#         76
  -------         ENDPROC       LCM_READDATA
  -------         PROC          LCM_READSTATUS
  C:055AH         LINE#         84
  C:055AH         LINE#         85
  C:055AH         LINE#         86
BL51 BANKED LINKER/LOCATER V6.22                                                      11/03/2013  14:52:55  PAGE 7


  C:055DH         LINE#         87
  C:055FH         LINE#         88
  C:0561H         LINE#         89
  C:0563H         LINE#         90
  C:0565H         LINE#         91
  C:0567H         LINE#         92
  C:056CH         LINE#         93
  C:056EH         LINE#         94
  -------         ENDPROC       LCM_READSTATUS
  -------         PROC          LCM_1602_INIT
  C:0371H         LINE#         102
  C:0371H         LINE#         103
  C:0371H         LINE#         104
  C:0373H         LINE#         105
  C:0376H         LINE#         106
  C:037DH         LINE#         107
  C:0380H         LINE#         108
  C:0388H         LINE#         109
  C:038BH         LINE#         110
  C:0393H         LINE#         111
  C:0396H         LINE#         112
  C:039BH         LINE#         113
  C:03A0H         LINE#         114
  C:03A9H         LINE#         115
  C:03B2H         LINE#         116
  -------         ENDPROC       LCM_1602_INIT
  -------         PROC          _LCM_1602_SHOW_WORD
  D:0007H         SYMBOL        X
  D:0005H         SYMBOL        Y
  D:001AH         SYMBOL        DData
  C:04DAH         LINE#         126
  C:04DCH         LINE#         127
  C:04DCH         LINE#         128
  C:04DFH         LINE#         129
  C:04E2H         LINE#         130
  C:04E8H         LINE#         131
  C:04EBH         LINE#         132
  C:04F1H         LINE#         133
  -------         ENDPROC       _LCM_1602_SHOW_WORD
  -------         PROC          _LCM_1602_SHOW_STRING
  D:0015H         SYMBOL        X
  D:0016H         SYMBOL        Y
  D:0017H         SYMBOL        DData
  -------         DO            
  D:0019H         SYMBOL        ListLength
  -------         ENDDO         
  C:0403H         LINE#         142
  C:040BH         LINE#         143
  C:040BH         LINE#         145
  C:040EH         LINE#         146
  C:0411H         LINE#         147
  C:0414H         LINE#         148
  C:0427H         LINE#         149
  C:0427H         LINE#         150
  C:042EH         LINE#         151
  C:042EH         LINE#         152
  C:0435H         LINE#         153
BL51 BANKED LINKER/LOCATER V6.22                                                      11/03/2013  14:52:55  PAGE 8


  C:0437H         LINE#         154
  C:0439H         LINE#         155
  C:0439H         LINE#         156
  C:043BH         LINE#         157
  -------         ENDPROC       _LCM_1602_SHOW_STRING
  -------         PROC          DELAY5MS
  -------         DO            
  D:0006H         SYMBOL        TempCyc
  -------         ENDDO         
  C:05B9H         LINE#         165
  C:05B9H         LINE#         166
  C:05B9H         LINE#         167
  C:05BDH         LINE#         168
  C:05C7H         LINE#         169
  -------         ENDPROC       DELAY5MS
  -------         PROC          DELAY400MS
  -------         DO            
  D:0005H         SYMBOL        TempCycA
  D:0006H         SYMBOL        TempCycB
  -------         ENDDO         
  C:052BH         LINE#         177
  C:052BH         LINE#         178
  C:052BH         LINE#         179
  C:052DH         LINE#         181
  C:0533H         LINE#         182
  C:0533H         LINE#         183
  C:0537H         LINE#         184
  C:0543H         LINE#         186
  -------         ENDPROC       DELAY400MS
  -------         ENDMOD        LCM_1602_MAIN

  -------         MODULE        DHT11
  C:0000H         SYMBOL        _ICE_DUMMY_
  C:0325H         SYMBOL        ReadValue
  D:0090H         PUBLIC        P1
  D:00B0H         PUBLIC        P3
  B:00A8H.7       PUBLIC        EA
  D:00A8H         PUBLIC        IE
  D:00B8H         PUBLIC        IP
  C:05D5H         SYMBOL        Delay_10us
  D:0008H         SYMBOL        value_array
  B:0090H.3       PUBLIC        dht11
  D:000DH         SYMBOL        status
  D:0098H         PUBLIC        SCON
  D:0088H         PUBLIC        TCON
  D:000EH         PUBLIC        humi_value
  D:0010H         PUBLIC        temp_value
  C:016DH         PUBLIC        ReadTempAndHumi
  C:049FH         PUBLIC        _Delay_1ms
  D:00C8H         PUBLIC        T2CON
  D:00D0H         PUBLIC        PSW
  -------         PROC          _DELAY_1MS
  D:0006H         SYMBOL        ms
  -------         DO            
  D:0006H         SYMBOL        x
  D:0004H         SYMBOL        y
  -------         ENDDO         
BL51 BANKED LINKER/LOCATER V6.22                                                      11/03/2013  14:52:55  PAGE 9


  C:049FH         LINE#         17
  C:049FH         LINE#         18
  C:049FH         LINE#         20
  C:04A8H         LINE#         21
  C:04A8H         LINE#         22
  C:04B5H         LINE#         23
  C:04BCH         LINE#         24
  -------         ENDPROC       _DELAY_1MS
  -------         PROC          DELAY_10US
  -------         DO            
  D:0015H         SYMBOL        i
  -------         ENDDO         
  C:05D5H         LINE#         26
  C:05D5H         LINE#         27
  C:05D5H         LINE#         29
  C:05D7H         LINE#         30
  C:05D9H         LINE#         31
  C:05DBH         LINE#         32
  C:05DDH         LINE#         33
  C:05DFH         LINE#         34
  C:05E1H         LINE#         35
  -------         ENDPROC       DELAY_10US
  -------         PROC          READVALUE
  -------         DO            
  D:0005H         SYMBOL        count
  D:0007H         SYMBOL        value
  D:0006H         SYMBOL        i
  -------         ENDDO         
  C:0325H         LINE#         38
  C:0325H         LINE#         39
  C:0325H         LINE#         40
  C:0327H         LINE#         41
  C:032AH         LINE#         42
  C:032CH         LINE#         43
  C:032CH         LINE#         45
  C:0330H         LINE#         46
  C:0332H         LINE#         48
  C:033EH         LINE#         49
  C:0344H         LINE#         50
  C:0344H         LINE#         51
  C:0344H         LINE#         52
  C:0346H         LINE#         53
  C:0346H         LINE#         55
  C:0349H         LINE#         56
  C:034CH         LINE#         57
  C:034FH         LINE#         59
  C:0352H         LINE#         60
  C:0352H         LINE#         62
  C:0353H         LINE#         64
  C:035FH         LINE#         65
  C:035FH         LINE#         66
  C:0361H         LINE#         67
  C:0363H         LINE#         68
  C:0369H         LINE#         69
  C:0369H         LINE#         70
  C:036CH         LINE#         71
  C:036EH         LINE#         72
BL51 BANKED LINKER/LOCATER V6.22                                                      11/03/2013  14:52:55  PAGE 10


  C:036EH         LINE#         73
  C:036EH         LINE#         74
  C:0370H         LINE#         75
  C:0370H         LINE#         76
  -------         ENDPROC       READVALUE
  -------         PROC          READTEMPANDHUMI
  -------         DO            
  D:0003H         SYMBOL        i
  D:0001H         SYMBOL        check_value
  D:0002H         SYMBOL        count
  -------         ENDDO         
  C:016DH         LINE#         79
  C:016DH         LINE#         80
  C:016DH         LINE#         81
  C:0171H         LINE#         82
  C:0173H         LINE#         83
  C:0175H         LINE#         84
  C:017BH         LINE#         85
  C:017DH         LINE#         87
  C:0180H         LINE#         88
  C:0183H         LINE#         89
  C:0186H         LINE#         90
  C:0189H         LINE#         91
  C:018CH         LINE#         92
  C:018CH         LINE#         94
  C:018CH         LINE#         95
  C:018EH         LINE#         96
  C:018EH         LINE#         98
  C:018EH         LINE#         100
  C:019AH         LINE#         101
  C:01A0H         LINE#         102
  C:01A0H         LINE#         103
  C:01A0H         LINE#         104
  C:01A0H         LINE#         105
  C:01A2H         LINE#         106
  C:01A2H         LINE#         107
  C:01A4H         LINE#         108
  C:01A6H         LINE#         110
  C:01B2H         LINE#         111
  C:01B8H         LINE#         112
  C:01B8H         LINE#         113
  C:01BAH         LINE#         114
  C:01BAH         LINE#         115
  C:01BCH         LINE#         116
  C:01BCH         LINE#         118
  C:01BEH         LINE#         119
  C:01BEH         LINE#         120
  C:01C7H         LINE#         121
  C:01CBH         LINE#         122
  C:01CBH         LINE#         123
  C:01CDH         LINE#         124
  C:01CFH         LINE#         125
  C:01D1H         LINE#         126
  C:01D1H         LINE#         128
  C:01D6H         LINE#         129
  C:01D6H         LINE#         131
  C:01DDH         LINE#         132
BL51 BANKED LINKER/LOCATER V6.22                                                      11/03/2013  14:52:55  PAGE 11


  C:01DDH         LINE#         133
  C:01E1H         LINE#         135
  C:01E6H         LINE#         136
  C:01E6H         LINE#         137
  C:01F4H         LINE#         138
  C:0202H         LINE#         139
  C:0204H         LINE#         140
  C:0206H         LINE#         141
  C:0209H         LINE#         142
  C:0209H         LINE#         144
  C:0209H         LINE#         146
  C:020BH         LINE#         147
  C:020DH         LINE#         148
  C:020DH         LINE#         149
  C:020DH         LINE#         150
  -------         ENDPROC       READTEMPANDHUMI
  -------         ENDMOD        DHT11

  -------         MODULE        DS18B20
  C:0000H         SYMBOL        _ICE_DUMMY_
  C:0480H         PUBLIC        dsreset
  D:0090H         PUBLIC        P1
  D:00B0H         PUBLIC        P3
  D:00A8H         PUBLIC        IE
  B:0090H.1       PUBLIC        DS
  D:00B8H         PUBLIC        IP
  C:043CH         PUBLIC        tmpreadbit
  D:0098H         PUBLIC        SCON
  D:0088H         PUBLIC        TCON
  C:03BBH         PUBLIC        _tmpwritebyte
  C:05E2H         PUBLIC        tmpchange
  C:0511H         PUBLIC        tmp
  D:00C8H         PUBLIC        T2CON
  C:0596H         PUBLIC        readrom
  C:04BDH         PUBLIC        tmpread
  C:0467H         PUBLIC        _delayb
  D:00D0H         PUBLIC        PSW
  C:0460H         SYMBOL        L?0046
  -------         PROC          L?0045
  -------         ENDPROC       L?0045
  C:0460H         SYMBOL        L?0046
  -------         PROC          _DELAYB
  D:0006H         SYMBOL        count
  -------         DO            
  D:0004H         SYMBOL        i
  -------         ENDDO         
  C:0467H         LINE#         10
  C:0467H         LINE#         11
  C:0467H         LINE#         13
  C:046BH         LINE#         14
  C:046BH         LINE#         15
  C:046FH         LINE#         16
  C:046FH         LINE#         17
  C:0478H         LINE#         18
  C:047DH         LINE#         19
  C:047FH         LINE#         20
  -------         ENDPROC       _DELAYB
BL51 BANKED LINKER/LOCATER V6.22                                                      11/03/2013  14:52:55  PAGE 12


  -------         PROC          DSRESET
  -------         DO            
  D:0006H         SYMBOL        i
  -------         ENDDO         
  C:0480H         LINE#         23
  C:0480H         LINE#         24
  C:0480H         LINE#         26
  C:0482H         LINE#         27
  C:0486H         LINE#         28
  C:048FH         LINE#         29
  C:0491H         LINE#         30
  C:0495H         LINE#         31
  C:049EH         LINE#         32
  -------         ENDPROC       DSRESET
  -------         PROC          TMPREADBIT
  -------         DO            
  D:0006H         SYMBOL        i
  B:0020H.0       SYMBOL        dat
  -------         ENDDO         
  C:043CH         LINE#         35
  C:043CH         LINE#         36
  C:043CH         LINE#         39
  C:043EH         LINE#         40
  C:0442H         LINE#         41
  C:0444H         LINE#         42
  C:044CH         LINE#         43
  C:0450H         LINE#         44
  C:0454H         LINE#         45
  C:045DH         LINE#         46
  C:045FH         LINE#         47
  -------         ENDPROC       TMPREADBIT
  -------         PROC          TMPREAD
  -------         DO            
  D:0004H         SYMBOL        i
  D:0007H         SYMBOL        j
  D:0005H         SYMBOL        dat
  -------         ENDDO         
  C:04BDH         LINE#         50
  C:04BDH         LINE#         51
  C:04BDH         LINE#         53
  C:04BFH         LINE#         54
  C:04C1H         LINE#         55
  C:04C1H         LINE#         56
  C:04C7H         LINE#         57
  C:04D3H         LINE#         58
  C:04D7H         LINE#         59
  C:04D9H         LINE#         60
  -------         ENDPROC       TMPREAD
  -------         PROC          _TMPWRITEBYTE
  D:0007H         SYMBOL        dat
  -------         DO            
  D:0002H         SYMBOL        i
  D:0006H         SYMBOL        j
  B:0020H.0       SYMBOL        testb
  -------         ENDDO         
  C:03BBH         LINE#         63
  C:03BBH         LINE#         64
BL51 BANKED LINKER/LOCATER V6.22                                                      11/03/2013  14:52:55  PAGE 13


  C:03BBH         LINE#         68
  C:03BDH         LINE#         69
  C:03BDH         LINE#         70
  C:03C1H         LINE#         71
  C:03C5H         LINE#         72
  C:03C8H         LINE#         73
  C:03C8H         LINE#         74
  C:03CAH         LINE#         75
  C:03D2H         LINE#         76
  C:03D4H         LINE#         77
  C:03D8H         LINE#         78
  C:03E3H         LINE#         79
  C:03E3H         LINE#         81
  C:03E3H         LINE#         82
  C:03E5H         LINE#         83
  C:03E9H         LINE#         84
  C:03F2H         LINE#         85
  C:03F4H         LINE#         86
  C:03FEH         LINE#         87
  C:03FEH         LINE#         88
  C:0402H         LINE#         89
  -------         ENDPROC       _TMPWRITEBYTE
  -------         PROC          TMPCHANGE
  C:05E2H         LINE#         92
  C:05E2H         LINE#         93
  C:05E2H         LINE#         94
  C:05E2H         LINE#         95
  C:05E5H         LINE#         96
  C:05EAH         LINE#         97
  -------         ENDPROC       TMPCHANGE
  -------         PROC          TMP
  -------         DO            
  D:0006H         SYMBOL        temp
  D:0003H         SYMBOL        a
  D:0007H         SYMBOL        b
  -------         ENDDO         
  C:0511H         LINE#         101
  C:0511H         LINE#         102
  C:0511H         LINE#         105
  C:0511H         LINE#         106
  C:0514H         LINE#         108
  C:0519H         LINE#         109
  C:051EH         LINE#         111
  C:0523H         LINE#         112
  C:0526H         LINE#         113
  C:0526H         LINE#         114
  C:0528H         LINE#         115
  C:052AH         LINE#         116
  C:052AH         LINE#         118
  -------         ENDPROC       TMP
  -------         PROC          READROM
  -------         DO            
  D:001EH         SYMBOL        sn1
  D:001FH         SYMBOL        sn2
  -------         ENDDO         
  C:0596H         LINE#         121
  C:0596H         LINE#         122
BL51 BANKED LINKER/LOCATER V6.22                                                      11/03/2013  14:52:55  PAGE 14


  C:0596H         LINE#         125
  C:0596H         LINE#         126
  C:0599H         LINE#         128
  C:059EH         LINE#         130
  C:05A3H         LINE#         131
  C:05A8H         LINE#         132
  -------         ENDPROC       READROM
  -------         ENDMOD        DS18B20

  -------         MODULE        ?C?SIDIV
  C:029AH         PUBLIC        ?C?SIDIV
  -------         ENDMOD        ?C?SIDIV

  -------         MODULE        ?C?UIDIV
  C:02D0H         PUBLIC        ?C?UIDIV
  -------         ENDMOD        ?C?UIDIV

*** WARNING L16: UNCALLED SEGMENT, IGNORED FOR OVERLAY PROCESS
    SEGMENT: ?PR?LCM_READDATA?LCM_1602_MAIN

*** WARNING L16: UNCALLED SEGMENT, IGNORED FOR OVERLAY PROCESS
    SEGMENT: ?PR?DELAY400MS?LCM_1602_MAIN

*** WARNING L16: UNCALLED SEGMENT, IGNORED FOR OVERLAY PROCESS
    SEGMENT: ?CO?LCM_1602_MAIN

*** WARNING L16: UNCALLED SEGMENT, IGNORED FOR OVERLAY PROCESS
    SEGMENT: ?PR?READROM?DS18B20

Program Size: data=33.1 xdata=0 code=1527
LINK/LOCATE RUN COMPLETE.  4 WARNING(S),  0 ERROR(S)
